; ModuleID = '58/718.c'
source_filename = "58/718.c"
target datalayout = "e-m:e-p270:32:32-p271:32:32-p272:64:64-i64:64-f80:128-n8:16:32:64-S128"
target triple = "x86_64-pc-linux-gnu"

@.str = private unnamed_addr constant [4 x i8] c"%d\0A\00", align 1
@.str.1 = private unnamed_addr constant [3 x i8] c"0\0A\00", align 1
@.str.2 = private unnamed_addr constant [3 x i8] c"1\0A\00", align 1

; Function Attrs: noinline nounwind uwtable
define dso_local i32 @main() #0 {
  %1 = alloca i32, align 4
  %2 = alloca i32, align 4
  %3 = alloca i32, align 4
  %4 = alloca i32, align 4
  %5 = alloca i32, align 4
  %6 = alloca [81 x i8], align 16
  store i32 0, i32* %1, align 4
  %7 = call i32 (i8*, ...) @__isoc99_scanf(i8* getelementptr inbounds ([4 x i8], [4 x i8]* @.str, i64 0, i64 0), i32* %2)
  store i32 1, i32* %3, align 4
  br label %8

8:                                                ; preds = %120, %0
  %9 = load i32, i32* %3, align 4
  %10 = load i32, i32* %2, align 4
  %11 = icmp sle i32 %9, %10
  br i1 %11, label %12, label %123

12:                                               ; preds = %8
  %13 = getelementptr inbounds [81 x i8], [81 x i8]* %6, i64 0, i64 0
  %14 = call i32 (i8*, ...) bitcast (i32 (...)* @gets to i32 (i8*, ...)*)(i8* %13)
  %15 = getelementptr inbounds [81 x i8], [81 x i8]* %6, i64 0, i64 0
  %16 = call i64 @strlen(i8* %15) #3
  %17 = trunc i64 %16 to i32
  store i32 %17, i32* %5, align 4
  %18 = getelementptr inbounds [81 x i8], [81 x i8]* %6, i64 0, i64 0
  %19 = load i8, i8* %18, align 16
  %20 = sext i8 %19 to i32
  %21 = icmp slt i32 %20, 65
  br i1 %21, label %42, label %22

22:                                               ; preds = %12
  %23 = getelementptr inbounds [81 x i8], [81 x i8]* %6, i64 0, i64 0
  %24 = load i8, i8* %23, align 16
  %25 = sext i8 %24 to i32
  %26 = icmp sgt i32 %25, 90
  br i1 %26, label %27, label %32

27:                                               ; preds = %22
  %28 = getelementptr inbounds [81 x i8], [81 x i8]* %6, i64 0, i64 0
  %29 = load i8, i8* %28, align 16
  %30 = sext i8 %29 to i32
  %31 = icmp slt i32 %30, 95
  br i1 %31, label %42, label %32

32:                                               ; preds = %27, %22
  %33 = getelementptr inbounds [81 x i8], [81 x i8]* %6, i64 0, i64 0
  %34 = load i8, i8* %33, align 16
  %35 = sext i8 %34 to i32
  %36 = icmp eq i32 %35, 96
  br i1 %36, label %42, label %37

37:                                               ; preds = %32
  %38 = getelementptr inbounds [81 x i8], [81 x i8]* %6, i64 0, i64 0
  %39 = load i8, i8* %38, align 16
  %40 = sext i8 %39 to i32
  %41 = icmp sgt i32 %40, 122
  br i1 %41, label %42, label %44

42:                                               ; preds = %37, %32, %27, %12
  %43 = call i32 (i8*, ...) @printf(i8* getelementptr inbounds ([3 x i8], [3 x i8]* @.str.1, i64 0, i64 0))
  br label %119

44:                                               ; preds = %37
  store i32 1, i32* %4, align 4
  br label %45

45:                                               ; preds = %101, %44
  %46 = load i32, i32* %4, align 4
  %47 = load i32, i32* %5, align 4
  %48 = icmp slt i32 %46, %47
  br i1 %48, label %49, label %104

49:                                               ; preds = %45
  %50 = load i32, i32* %4, align 4
  %51 = sext i32 %50 to i64
  %52 = getelementptr inbounds [81 x i8], [81 x i8]* %6, i64 0, i64 %51
  %53 = load i8, i8* %52, align 1
  %54 = sext i8 %53 to i32
  %55 = icmp sge i32 %54, 48
  br i1 %55, label %56, label %63

56:                                               ; preds = %49
  %57 = load i32, i32* %4, align 4
  %58 = sext i32 %57 to i64
  %59 = getelementptr inbounds [81 x i8], [81 x i8]* %6, i64 0, i64 %58
  %60 = load i8, i8* %59, align 1
  %61 = sext i8 %60 to i32
  %62 = icmp sle i32 %61, 57
  br i1 %62, label %98, label %63

63:                                               ; preds = %56, %49
  %64 = load i32, i32* %4, align 4
  %65 = sext i32 %64 to i64
  %66 = getelementptr inbounds [81 x i8], [81 x i8]* %6, i64 0, i64 %65
  %67 = load i8, i8* %66, align 1
  %68 = sext i8 %67 to i32
  %69 = icmp sge i32 %68, 65
  br i1 %69, label %70, label %77

70:                                               ; preds = %63
  %71 = load i32, i32* %4, align 4
  %72 = sext i32 %71 to i64
  %73 = getelementptr inbounds [81 x i8], [81 x i8]* %6, i64 0, i64 %72
  %74 = load i8, i8* %73, align 1
  %75 = sext i8 %74 to i32
  %76 = icmp sle i32 %75, 90
  br i1 %76, label %98, label %77

77:                                               ; preds = %70, %63
  %78 = load i32, i32* %4, align 4
  %79 = sext i32 %78 to i64
  %80 = getelementptr inbounds [81 x i8], [81 x i8]* %6, i64 0, i64 %79
  %81 = load i8, i8* %80, align 1
  %82 = sext i8 %81 to i32
  %83 = icmp eq i32 %82, 95
  br i1 %83, label %98, label %84

84:                                               ; preds = %77
  %85 = load i32, i32* %4, align 4
  %86 = sext i32 %85 to i64
  %87 = getelementptr inbounds [81 x i8], [81 x i8]* %6, i64 0, i64 %86
  %88 = load i8, i8* %87, align 1
  %89 = sext i8 %88 to i32
  %90 = icmp sge i32 %89, 97
  br i1 %90, label %91, label %99

91:                                               ; preds = %84
  %92 = load i32, i32* %4, align 4
  %93 = sext i32 %92 to i64
  %94 = getelementptr inbounds [81 x i8], [81 x i8]* %6, i64 0, i64 %93
  %95 = load i8, i8* %94, align 1
  %96 = sext i8 %95 to i32
  %97 = icmp sle i32 %96, 122
  br i1 %97, label %98, label %99

98:                                               ; preds = %91, %77, %70, %56
  br label %100

99:                                               ; preds = %91, %84
  br label %104

100:                                              ; preds = %98
  br label %101

101:                                              ; preds = %100
  %102 = load i32, i32* %4, align 4
  %103 = add nsw i32 %102, 1
  store i32 %103, i32* %4, align 4
  br label %45

104:                                              ; preds = %99, %45
  %105 = load i32, i32* %4, align 4
  %106 = load i32, i32* %5, align 4
  %107 = icmp eq i32 %105, %106
  br i1 %107, label %108, label %110

108:                                              ; preds = %104
  %109 = call i32 (i8*, ...) @printf(i8* getelementptr inbounds ([3 x i8], [3 x i8]* @.str.2, i64 0, i64 0))
  br label %118

110:                                              ; preds = %104
  %111 = load i32, i32* %4, align 4
  %112 = load i32, i32* %5, align 4
  %113 = sub nsw i32 %112, 1
  %114 = icmp sle i32 %111, %113
  br i1 %114, label %115, label %117

115:                                              ; preds = %110
  %116 = call i32 (i8*, ...) @printf(i8* getelementptr inbounds ([3 x i8], [3 x i8]* @.str.1, i64 0, i64 0))
  br label %117

117:                                              ; preds = %115, %110
  br label %118

118:                                              ; preds = %117, %108
  br label %119

119:                                              ; preds = %118, %42
  br label %120

120:                                              ; preds = %119
  %121 = load i32, i32* %3, align 4
  %122 = add nsw i32 %121, 1
  store i32 %122, i32* %3, align 4
  br label %8

123:                                              ; preds = %8
  ret i32 0
}

declare dso_local i32 @__isoc99_scanf(i8*, ...) #1

declare dso_local i32 @gets(...) #1

; Function Attrs: nounwind readonly
declare dso_local i64 @strlen(i8*) #2

declare dso_local i32 @printf(i8*, ...) #1


!llvm.module.flags = !{!0}
!llvm.ident = !{!1}

!0 = !{i32 1, !"wchar_size", i32 4}
!1 = !{!"clang version 10.0.0-4ubuntu1 "}
